target datalayout = "e-m:e-p270:32:32-p271:32:32-p272:64:64-i64:64-i128:128-f80:128-n8:16:32:64-S128"
target triple = "x86_64-pc-linux-gnu"

%"class.std::__cxx11::basic_string" = type { %"struct.std::__cxx11::basic_string<char>::_Alloc_hider", i64, %union.anon }
%"struct.std::__cxx11::basic_string<char>::_Alloc_hider" = type { ptr }
%union.anon = type { i64, [8 x i8] }
%"class.OpenColorIO_v2_5dev::CDLParser::Impl" = type <{ ptr, %"class.OpenColorIO_v2_5dev::XmlReaderElementStack", %"class.std::shared_ptr", i32, [4 x i8], %"class.std::__cxx11::basic_string", i8, i8, [6 x i8] }>
%"class.OpenColorIO_v2_5dev::XmlReaderElementStack" = type { ptr, %"class.std::vector" }
%"class.std::vector" = type { %"struct.std::_Vector_base" }
%"struct.std::_Vector_base" = type { %"struct.std::_Vector_base<std::shared_ptr<OpenColorIO_v2_5dev::XmlReaderElement>, std::allocator<std::shared_ptr<OpenColorIO_v2_5dev::XmlReaderElement>>>::_Vector_impl" }
%"struct.std::_Vector_base<std::shared_ptr<OpenColorIO_v2_5dev::XmlReaderElement>, std::allocator<std::shared_ptr<OpenColorIO_v2_5dev::XmlReaderElement>>>::_Vector_impl" = type { %"struct.std::_Vector_base<std::shared_ptr<OpenColorIO_v2_5dev::XmlReaderElement>, std::allocator<std::shared_ptr<OpenColorIO_v2_5dev::XmlReaderElement>>>::_Vector_impl_data" }
%"struct.std::_Vector_base<std::shared_ptr<OpenColorIO_v2_5dev::XmlReaderElement>, std::allocator<std::shared_ptr<OpenColorIO_v2_5dev::XmlReaderElement>>>::_Vector_impl_data" = type { ptr, ptr, ptr }
%"class.std::shared_ptr" = type { %"class.std::__shared_ptr" }
%"class.std::__shared_ptr" = type { ptr, %"class.std::__shared_count" }
%"class.std::__shared_count" = type { ptr }
%"class.std::shared_ptr.4" = type { %"class.std::__shared_ptr.5" }
%"class.std::__shared_ptr.5" = type { ptr, %"class.std::__shared_count" }

; Function Attrs: mustprogress nounwind uwtable
define linkonce_odr hidden noundef ptr @_ZNKSt12__shared_ptrIN19OpenColorIO_v2_5dev16XmlReaderElementELN9__gnu_cxx12_Lock_policyE2EE3getEv(ptr noundef nonnull align 8 dereferenceable(16) %0) #4 comdat align 2 {
  %2 = alloca ptr, align 8
  store ptr %0, ptr %2, align 8, !tbaa !108
  %3 = load ptr, ptr %2, align 8
  %4 = getelementptr inbounds nuw %"class.std::__shared_ptr.5", ptr %3, i32 0, i32 0
  %5 = load ptr, ptr %4, align 8, !tbaa !110
  ret ptr %5
}

; Function Attrs: mustprogress nounwind uwtable
define linkonce_odr hidden noundef ptr @_ZNKSt19__shared_ptr_accessIN19OpenColorIO_v2_5dev16XmlReaderElementELN9__gnu_cxx12_Lock_policyE2ELb0ELb0EE6_M_getEv(ptr noundef nonnull align 1 dereferenceable(1) %0) #4 comdat align 2 {
  %2 = alloca ptr, align 8
  store ptr %0, ptr %2, align 8, !tbaa !71
  %3 = load ptr, ptr %2, align 8
  %4 = call noundef ptr @_ZNKSt12__shared_ptrIN19OpenColorIO_v2_5dev16XmlReaderElementELN9__gnu_cxx12_Lock_policyE2EE3getEv(ptr noundef nonnull align 8 dereferenceable(16) %3) #3
  ret ptr %4
}

; Function Attrs: mustprogress nounwind uwtable
define linkonce_odr hidden noundef ptr @_ZNKSt19__shared_ptr_accessIN19OpenColorIO_v2_5dev16XmlReaderElementELN9__gnu_cxx12_Lock_policyE2ELb0ELb0EEptEv(ptr noundef nonnull align 1 dereferenceable(1) %0) #4 comdat align 2 {
  %2 = alloca ptr, align 8
  store ptr %0, ptr %2, align 8, !tbaa !71
  %3 = load ptr, ptr %2, align 8
  %4 = call noundef ptr @_ZNKSt19__shared_ptr_accessIN19OpenColorIO_v2_5dev16XmlReaderElementELN9__gnu_cxx12_Lock_policyE2ELb0ELb0EE6_M_getEv(ptr noundef nonnull align 1 dereferenceable(1) %3) #3
  ret ptr %4
}

; Function Attrs: mustprogress uwtable
define hidden void @_ZN19OpenColorIO_v2_5dev9CDLParser4Impl22StartElementHandlerCDLEPvPKcPS4_(ptr noundef %0, ptr noundef %1, ptr noundef %2) #5 align 2 personality ptr @__gxx_personality_v0 {
  %4 = alloca ptr, align 8
  %5 = alloca ptr, align 8
  %6 = alloca ptr, align 8
  %7 = alloca ptr, align 8
  %8 = alloca %"class.std::shared_ptr.4", align 8
  %9 = alloca ptr, align 8
  %10 = alloca i32, align 4
  store ptr %0, ptr %4, align 8, !tbaa !75
  store ptr %1, ptr %5, align 8, !tbaa !49
  store ptr %2, ptr %6, align 8, !tbaa !76
  call void @llvm.lifetime.start.p0(i64 8, ptr %7) #3
  %11 = load ptr, ptr %4, align 8, !tbaa !75
  store ptr %11, ptr %7, align 8, !tbaa !11
  %12 = load ptr, ptr %7, align 8, !tbaa !11
  %13 = load ptr, ptr %5, align 8, !tbaa !49
  %14 = call noundef zeroext i1 @_ZN19OpenColorIO_v2_5dev9CDLParser4Impl19IsValidStartElementEPS1_PKc(ptr noundef %12, ptr noundef %13)
  br i1 %14, label %15, label %57

15:                                               ; preds = %3
  %16 = load ptr, ptr %7, align 8, !tbaa !11
  %17 = load ptr, ptr %5, align 8, !tbaa !49
  %18 = call noundef zeroext i1 @_ZN19OpenColorIO_v2_5dev9CDLParser4Impl35HandleColorDecisionListStartElementEPS1_PKc(ptr noundef %16, ptr noundef %17)
  br i1 %18, label %43, label %19

19:                                               ; preds = %15
  %20 = load ptr, ptr %7, align 8, !tbaa !11
  %21 = load ptr, ptr %5, align 8, !tbaa !49
  %22 = call noundef zeroext i1 @_ZN19OpenColorIO_v2_5dev9CDLParser4Impl31HandleColorDecisionStartElementEPS1_PKc(ptr noundef %20, ptr noundef %21)
  br i1 %22, label %43, label %23

23:                                               ; preds = %19
  %24 = load ptr, ptr %7, align 8, !tbaa !11
  %25 = load ptr, ptr %5, align 8, !tbaa !49
  %26 = call noundef zeroext i1 @_ZN19OpenColorIO_v2_5dev9CDLParser4Impl36HandleColorCorrectionCDLStartElementEPS1_PKc(ptr noundef %24, ptr noundef %25)
  br i1 %26, label %43, label %27

27:                                               ; preds = %23
  %28 = load ptr, ptr %7, align 8, !tbaa !11
  %29 = load ptr, ptr %5, align 8, !tbaa !49
  %30 = call noundef zeroext i1 @_ZN19OpenColorIO_v2_5dev9CDLParser4Impl25HandleSOPNodeStartElementEPS1_PKc(ptr noundef %28, ptr noundef %29)
  br i1 %30, label %43, label %31

31:                                               ; preds = %27
  %32 = load ptr, ptr %7, align 8, !tbaa !11
  %33 = load ptr, ptr %5, align 8, !tbaa !49
  %34 = call noundef zeroext i1 @_ZN19OpenColorIO_v2_5dev9CDLParser4Impl25HandleSatNodeStartElementEPS1_PKc(ptr noundef %32, ptr noundef %33)
  br i1 %34, label %43, label %35

35:                                               ; preds = %31
  %36 = load ptr, ptr %7, align 8, !tbaa !11
  %37 = load ptr, ptr %5, align 8, !tbaa !49
  %38 = call noundef zeroext i1 @_ZN19OpenColorIO_v2_5dev9CDLParser4Impl26HandleTerminalStartElementEPS1_PKc(ptr noundef %36, ptr noundef %37)
  br i1 %38, label %43, label %39

39:                                               ; preds = %35
  %40 = load ptr, ptr %7, align 8, !tbaa !11
  %41 = load ptr, ptr %5, align 8, !tbaa !49
  %42 = call noundef zeroext i1 @_ZN19OpenColorIO_v2_5dev9CDLParser4Impl25HandleUnknownStartElementEPS1_PKc(ptr noundef %40, ptr noundef %41)
  br i1 %42, label %43, label %56

43:                                               ; preds = %39, %35, %31, %27, %23, %19, %15
  call void @llvm.lifetime.start.p0(i64 16, ptr %8) #3
  %44 = load ptr, ptr %7, align 8, !tbaa !11
  %45 = getelementptr inbounds nuw %"class.OpenColorIO_v2_5dev::CDLParser::Impl", ptr %44, i32 0, i32 1
  call void @_ZNK19OpenColorIO_v2_5dev21XmlReaderElementStack4backEv(ptr dead_on_unwind writable sret(%"class.std::shared_ptr.4") align 8 %8, ptr noundef nonnull align 8 dereferenceable(32) %45)
  %46 = call noundef ptr @_ZNKSt19__shared_ptr_accessIN19OpenColorIO_v2_5dev16XmlReaderElementELN9__gnu_cxx12_Lock_policyE2ELb0ELb0EEptEv(ptr noundef nonnull align 1 dereferenceable(1) %8) #3
  %47 = load ptr, ptr %6, align 8, !tbaa !76
  %48 = load ptr, ptr %46, align 8, !tbaa !43
  %49 = getelementptr inbounds ptr, ptr %48, i64 2
  %50 = load ptr, ptr %49, align 8
  invoke void %50(ptr noundef nonnull align 8 dereferenceable(80) %46, ptr noundef %47)
          to label %51 unwind label %52

51:                                               ; preds = %43
  call void @_ZNSt12__shared_ptrIN19OpenColorIO_v2_5dev16XmlReaderElementELN9__gnu_cxx12_Lock_policyE2EED2Ev(ptr noundef nonnull align 8 dereferenceable(16) %8) #3
  call void @llvm.lifetime.end.p0(i64 16, ptr %8) #3
  br label %56

52:                                               ; preds = %43
  %53 = landingpad { ptr, i32 }
          cleanup
  %54 = extractvalue { ptr, i32 } %53, 0
  store ptr %54, ptr %9, align 8
  %55 = extractvalue { ptr, i32 } %53, 1
  store i32 %55, ptr %10, align 4
  call void @_ZNSt12__shared_ptrIN19OpenColorIO_v2_5dev16XmlReaderElementELN9__gnu_cxx12_Lock_policyE2EED2Ev(ptr noundef nonnull align 8 dereferenceable(16) %8) #3
  call void @llvm.lifetime.end.p0(i64 16, ptr %8) #3
  call void @llvm.lifetime.end.p0(i64 8, ptr %7) #3
  br label %58

56:                                               ; preds = %51, %39
  br label %57

57:                                               ; preds = %56, %3
  call void @llvm.lifetime.end.p0(i64 8, ptr %7) #3
  ret void

58:                                               ; preds = %52
  %59 = load ptr, ptr %9, align 8
  %60 = load i32, ptr %10, align 4
  %61 = insertvalue { ptr, i32 } poison, ptr %59, 0
  %62 = insertvalue { ptr, i32 } %61, i32 %60, 1
  resume { ptr, i32 } %62
}