; Function Attrs: mustprogress uwtable
define hidden void @_ZN19OpenColorIO_v2_5dev9CDLParser4Impl22StartElementHandlerCDLEPvPKcPS4_(ptr noundef %0, ptr noundef %1, ptr noundef %2) #4 align 2 personality ptr @__gxx_personality_v0 {
  %4 = alloca %"class.std::shared_ptr.4", align 8
  %5 = tail call noundef zeroext i1 @_ZN19OpenColorIO_v2_5dev9CDLParser4Impl19IsValidStartElementEPS1_PKc(ptr noundef %0, ptr noundef %1)
  %6 = tail call noundef zeroext i1 @_ZN19OpenColorIO_v2_5dev9CDLParser4Impl35HandleColorDecisionListStartElementEPS1_PKc(ptr noundef %0, ptr noundef %1)
  br i1 %6, label %19, label %7

7:                                                ; preds = %3
  %8 = tail call noundef zeroext i1 @_ZN19OpenColorIO_v2_5dev9CDLParser4Impl31HandleColorDecisionStartElementEPS1_PKc(ptr noundef %0, ptr noundef %1)
  br i1 %8, label %19, label %9

9:                                                ; preds = %7
  %10 = tail call noundef zeroext i1 @_ZN19OpenColorIO_v2_5dev9CDLParser4Impl36HandleColorCorrectionCDLStartElementEPS1_PKc(ptr noundef %0, ptr noundef %1)
  br i1 %10, label %19, label %11

11:                                               ; preds = %9
  %12 = tail call noundef zeroext i1 @_ZN19OpenColorIO_v2_5dev9CDLParser4Impl25HandleSOPNodeStartElementEPS1_PKc(ptr noundef %0, ptr noundef %1)
  br i1 %12, label %19, label %13

13:                                               ; preds = %11
  %14 = tail call noundef zeroext i1 @_ZN19OpenColorIO_v2_5dev9CDLParser4Impl25HandleSatNodeStartElementEPS1_PKc(ptr noundef %0, ptr noundef %1)
  br i1 %14, label %19, label %15

15:                                               ; preds = %13
  %16 = tail call noundef zeroext i1 @_ZN19OpenColorIO_v2_5dev9CDLParser4Impl26HandleTerminalStartElementEPS1_PKc(ptr noundef %0, ptr noundef %1)
  br i1 %16, label %19, label %17

17:                                               ; preds = %15
  %18 = tail call noundef zeroext i1 @_ZN19OpenColorIO_v2_5dev9CDLParser4Impl25HandleUnknownStartElementEPS1_PKc(ptr noundef %0, ptr noundef %1)
  br label %19

19:                                               ; preds = %17, %15, %13, %11, %9, %7, %3
  call void @llvm.lifetime.start.p0(i64 16, ptr nonnull %4) #30
  %20 = getelementptr inbounds nuw i8, ptr %0, i64 8
  call void @_ZNK19OpenColorIO_v2_5dev21XmlReaderElementStack4backEv(ptr dead_on_unwind nonnull writable sret(%"class.std::shared_ptr.4") align 8 %4, ptr noundef nonnull align 8 dereferenceable(32) %20)
  %21 = load ptr, ptr %4, align 8, !tbaa !82
  %22 = load ptr, ptr %21, align 8, !tbaa !40
  %23 = getelementptr inbounds nuw i8, ptr %22, i64 16
  %24 = load ptr, ptr %23, align 8
  invoke void %24(ptr noundef nonnull align 8 dereferenceable(80) %21, ptr noundef %2)
          to label %25 unwind label %49

25:                                               ; preds = %19
  %26 = getelementptr inbounds nuw i8, ptr %4, i64 8
  %27 = load ptr, ptr %26, align 8, !tbaa !36
  %.not.i.i = icmp eq ptr %27, null
  br i1 %.not.i.i, label %_ZNSt12__shared_ptrIN19OpenColorIO_v2_5dev16XmlReaderElementELN9__gnu_cxx12_Lock_policyE2EED2Ev.exit, label %28

28:                                               ; preds = %25
  %29 = getelementptr inbounds nuw i8, ptr %27, i64 8
  %30 = load atomic i64, ptr %29 acquire, align 8
  %31 = icmp eq i64 %30, 4294967297
  %32 = trunc i64 %30 to i32
  br i1 %31, label %33, label %41

33:                                               ; preds = %28
  store i32 0, ptr %29, align 8, !tbaa !37
  %34 = getelementptr inbounds nuw i8, ptr %27, i64 12
  store i32 0, ptr %34, align 4, !tbaa !39
  %35 = load ptr, ptr %27, align 8, !tbaa !40
  %36 = getelementptr inbounds nuw i8, ptr %35, i64 16
  %37 = load ptr, ptr %36, align 8
  call void %37(ptr noundef nonnull align 8 dereferenceable(16) %27) #30
  %38 = load ptr, ptr %27, align 8, !tbaa !40
  %39 = getelementptr inbounds nuw i8, ptr %38, i64 24
  %40 = load ptr, ptr %39, align 8
  call void %40(ptr noundef nonnull align 8 dereferenceable(16) %27) #30
  br label %_ZNSt12__shared_ptrIN19OpenColorIO_v2_5dev16XmlReaderElementELN9__gnu_cxx12_Lock_policyE2EED2Ev.exit

41:                                               ; preds = %28
  %42 = load i8, ptr @__libc_single_threaded, align 1, !tbaa !33
  %.not.i.i.i = icmp eq i8 %42, 0
  br i1 %.not.i.i.i, label %45, label %43

43:                                               ; preds = %41
  %44 = add nsw i32 %32, -1
  store i32 %44, ptr %29, align 4, !tbaa !42
  br label %_ZN9__gnu_cxx27__exchange_and_add_dispatchEPii.exit.i.i.i

45:                                               ; preds = %41
  %46 = atomicrmw volatile add ptr %29, i32 -1 acq_rel, align 4
  br label %_ZN9__gnu_cxx27__exchange_and_add_dispatchEPii.exit.i.i.i

_ZN9__gnu_cxx27__exchange_and_add_dispatchEPii.exit.i.i.i: ; preds = %45, %43
  %.0.i.i.i.i = phi i32 [ %32, %43 ], [ %46, %45 ]
  %47 = icmp eq i32 %.0.i.i.i.i, 1
  br i1 %47, label %48, label %_ZNSt12__shared_ptrIN19OpenColorIO_v2_5dev16XmlReaderElementELN9__gnu_cxx12_Lock_policyE2EED2Ev.exit, !prof !43

48:                                               ; preds = %_ZN9__gnu_cxx27__exchange_and_add_dispatchEPii.exit.i.i.i
  call void @_ZNSt16_Sp_counted_baseILN9__gnu_cxx12_Lock_policyE2EE24_M_release_last_use_coldEv(ptr noundef nonnull align 8 dereferenceable(16) %27) #30
  br label %_ZNSt12__shared_ptrIN19OpenColorIO_v2_5dev16XmlReaderElementELN9__gnu_cxx12_Lock_policyE2EED2Ev.exit

_ZNSt12__shared_ptrIN19OpenColorIO_v2_5dev16XmlReaderElementELN9__gnu_cxx12_Lock_policyE2EED2Ev.exit: ; preds = %25, %33, %_ZN9__gnu_cxx27__exchange_and_add_dispatchEPii.exit.i.i.i, %48
  call void @llvm.lifetime.end.p0(i64 16, ptr nonnull %4) #30
  ret void

49:                                               ; preds = %19
  %50 = landingpad { ptr, i32 }
          cleanup
  call void @_ZNSt12__shared_ptrIN19OpenColorIO_v2_5dev16XmlReaderElementELN9__gnu_cxx12_Lock_policyE2EED2Ev(ptr noundef nonnull align 8 dereferenceable(16) %4) #30
  call void @llvm.lifetime.end.p0(i64 16, ptr nonnull %4) #30
  resume { ptr, i32 } %50
}